; Function Attrs: mustprogress uwtable
define hidden void @_ZNK3smt10theory_str18collect_statisticsER10statistics(ptr noundef nonnull readonly align 8 captures(none) dereferenceable(1800) %0, ptr noundef nonnull align 8 dereferenceable(16) %1) unnamed_addr #4 align 2 {
  %3 = getelementptr inbounds nuw i8, ptr %0, i64 1680
  %4 = load i32, ptr %3, align 8, !tbaa !835
  tail call void @_ZN10statistics6updateEPKcj(ptr noundef nonnull align 8 dereferenceable(16) %1, ptr noundef nonnull @.str.6, i32 noundef %4)
  %5 = getelementptr inbounds nuw i8, ptr %0, i64 1684
  %6 = load i32, ptr %5, align 4, !tbaa !836
  tail call void @_ZN10statistics6updateEPKcj(ptr noundef nonnull align 8 dereferenceable(16) %1, ptr noundef nonnull @.str.7, i32 noundef %6)
  %7 = getelementptr inbounds nuw i8, ptr %0, i64 1688
  %8 = load i32, ptr %7, align 8, !tbaa !837
  tail call void @_ZN10statistics6updateEPKcj(ptr noundef nonnull align 8 dereferenceable(16) %1, ptr noundef nonnull @.str.8, i32 noundef %8)
  %9 = getelementptr inbounds nuw i8, ptr %0, i64 1692
  %10 = load i32, ptr %9, align 4, !tbaa !838
  tail call void @_ZN10statistics6updateEPKcj(ptr noundef nonnull align 8 dereferenceable(16) %1, ptr noundef nonnull @.str.9, i32 noundef %10)
  ret void
}